target datalayout = "e-m:e-p270:32:32-p271:32:32-p272:64:64-i64:64-i128:128-f80:128-n8:16:32:64-S128"
target triple = "x86_64-pc-linux-gnu"

%struct.FBufferStruct = type { i32, i64, i64, i64, ptr, i64 }

; Function Attrs: nounwind sspstrong uwtable
define internal void @fbuffer_free(ptr noundef %0) #0 {
  %2 = alloca ptr, align 8
  store ptr %0, ptr %2, align 8, !tbaa !57
  %3 = load ptr, ptr %2, align 8, !tbaa !57
  %4 = getelementptr inbounds nuw %struct.FBufferStruct, ptr %3, i32 0, i32 4
  %5 = load ptr, ptr %4, align 8, !tbaa !63
  %6 = icmp ne ptr %5, null
  br i1 %6, label %7, label %16

7:                                                ; preds = %1
  %8 = load ptr, ptr %2, align 8, !tbaa !57
  %9 = getelementptr inbounds nuw %struct.FBufferStruct, ptr %8, i32 0, i32 0
  %10 = load i32, ptr %9, align 8, !tbaa !62
  %11 = icmp eq i32 %10, 0
  br i1 %11, label %12, label %16

12:                                               ; preds = %7
  %13 = load ptr, ptr %2, align 8, !tbaa !57
  %14 = getelementptr inbounds nuw %struct.FBufferStruct, ptr %13, i32 0, i32 4
  %15 = load ptr, ptr %14, align 8, !tbaa !63
  call void @ruby_xfree(ptr noundef %15)
  br label %16

16:                                               ; preds = %12, %7, %1
  ret void
}