; Function Attrs: nounwind sspstrong uwtable
define internal fastcc void @fbuffer_free(ptr noundef readonly captures(none) %0) unnamed_addr #0 {
  %2 = getelementptr inbounds nuw i8, ptr %0, i64 32
  %3 = load ptr, ptr %2, align 8, !tbaa !46
  %.not = icmp eq ptr %3, null
  br i1 %.not, label %8, label %4

4:                                                ; preds = %1
  %5 = load i32, ptr %0, align 8, !tbaa !45
  %6 = icmp eq i32 %5, 0
  br i1 %6, label %7, label %8

7:                                                ; preds = %4
  tail call void @ruby_xfree(ptr noundef nonnull %3) #22
  br label %8

8:                                                ; preds = %7, %4, %1
  ret void
}